target datalayout = "e-m:e-p270:32:32-p271:32:32-p272:64:64-i64:64-i128:128-f80:128-n8:16:32:64-S128"
target triple = "x86_64-pc-linux-gnu"

%"class.zxing::PerspectiveTransform" = type { %"class.zxing::Counted.base", float, float, float, float, float, float, float, float, float }
%"class.zxing::Counted.base" = type <{ ptr, i32 }>
%"class.zxing::Counted" = type <{ ptr, i32, [4 x i8] }>
%"class.zxing::Ref" = type { ptr }

@_ZN5zxing20PerspectiveTransformC1Efffffffff = hidden unnamed_addr alias void (ptr, float, float, float, float, float, float, float, float, float), ptr @_ZN5zxing20PerspectiveTransformC2Efffffffff

; Function Attrs: mustprogress nounwind uwtable
define linkonce_odr hidden noundef ptr @_ZN5zxing7Counted6retainEv(ptr noundef nonnull align 8 dereferenceable(12) %0) #1 comdat align 2 {
  %2 = alloca ptr, align 8
  store ptr %0, ptr %2, align 8, !tbaa !24
  %3 = load ptr, ptr %2, align 8
  %4 = getelementptr inbounds nuw %"class.zxing::Counted", ptr %3, i32 0, i32 1
  %5 = load i32, ptr %4, align 8, !tbaa !26
  %6 = add i32 %5, 1
  store i32 %6, ptr %4, align 8, !tbaa !26
  ret ptr %3
}

; Function Attrs: noinline noreturn nounwind uwtable
define linkonce_odr hidden void @__clang_call_terminate(ptr noundef %0) #7 comdat {
  %2 = call ptr @__cxa_begin_catch(ptr %0) #8
  call void @_ZSt9terminatev() #11
  unreachable
}

; Function Attrs: mustprogress nounwind uwtable
define linkonce_odr hidden void @_ZN5zxing7Counted7releaseEv(ptr noundef nonnull align 8 dereferenceable(12) %0) #1 comdat align 2 {
  %2 = alloca ptr, align 8
  store ptr %0, ptr %2, align 8, !tbaa !24
  %3 = load ptr, ptr %2, align 8
  %4 = getelementptr inbounds nuw %"class.zxing::Counted", ptr %3, i32 0, i32 1
  %5 = load i32, ptr %4, align 8, !tbaa !26
  %6 = add i32 %5, -1
  store i32 %6, ptr %4, align 8, !tbaa !26
  %7 = getelementptr inbounds nuw %"class.zxing::Counted", ptr %3, i32 0, i32 1
  %8 = load i32, ptr %7, align 8, !tbaa !26
  %9 = icmp eq i32 %8, 0
  br i1 %9, label %10, label %18

10:                                               ; preds = %1
  %11 = getelementptr inbounds nuw %"class.zxing::Counted", ptr %3, i32 0, i32 1
  store i32 -559026175, ptr %11, align 8, !tbaa !26
  %12 = icmp eq ptr %3, null
  br i1 %12, label %17, label %13

13:                                               ; preds = %10
  %14 = load ptr, ptr %3, align 8, !tbaa !10
  %15 = getelementptr inbounds ptr, ptr %14, i64 1
  %16 = load ptr, ptr %15, align 8
  call void %16(ptr noundef nonnull align 8 dereferenceable(12) %3) #8
  br label %17

17:                                               ; preds = %13, %10
  br label %18

18:                                               ; preds = %17, %1
  ret void
}

; Function Attrs: mustprogress uwtable
define linkonce_odr hidden void @_ZN5zxing3RefINS_20PerspectiveTransformEE5resetEPS1_(ptr noundef nonnull align 8 dereferenceable(8) %0, ptr noundef %1) #0 comdat align 2 {
  %3 = alloca ptr, align 8
  %4 = alloca ptr, align 8
  store ptr %0, ptr %3, align 8, !tbaa !27
  store ptr %1, ptr %4, align 8, !tbaa !3
  %5 = load ptr, ptr %3, align 8
  %6 = load ptr, ptr %4, align 8, !tbaa !3
  %7 = icmp ne ptr %6, null
  br i1 %7, label %8, label %11

8:                                                ; preds = %2
  %9 = load ptr, ptr %4, align 8, !tbaa !3
  %10 = call noundef ptr @_ZN5zxing7Counted6retainEv(ptr noundef nonnull align 8 dereferenceable(12) %9)
  br label %11

11:                                               ; preds = %8, %2
  %12 = getelementptr inbounds nuw %"class.zxing::Ref", ptr %5, i32 0, i32 0
  %13 = load ptr, ptr %12, align 8, !tbaa !29
  %14 = icmp ne ptr %13, null
  br i1 %14, label %15, label %18

15:                                               ; preds = %11
  %16 = getelementptr inbounds nuw %"class.zxing::Ref", ptr %5, i32 0, i32 0
  %17 = load ptr, ptr %16, align 8, !tbaa !29
  call void @_ZN5zxing7Counted7releaseEv(ptr noundef nonnull align 8 dereferenceable(12) %17)
  br label %18

18:                                               ; preds = %15, %11
  %19 = load ptr, ptr %4, align 8, !tbaa !3
  %20 = getelementptr inbounds nuw %"class.zxing::Ref", ptr %5, i32 0, i32 0
  store ptr %19, ptr %20, align 8, !tbaa !29
  ret void
}

; Function Attrs: mustprogress nounwind uwtable
define linkonce_odr hidden void @_ZN5zxing3RefINS_20PerspectiveTransformEED2Ev(ptr noundef nonnull align 8 dereferenceable(8) %0) unnamed_addr #1 comdat align 2 personality ptr @__gxx_personality_v0 {
  %2 = alloca ptr, align 8
  store ptr %0, ptr %2, align 8, !tbaa !27
  %3 = load ptr, ptr %2, align 8
  %4 = getelementptr inbounds nuw %"class.zxing::Ref", ptr %3, i32 0, i32 0
  %5 = load ptr, ptr %4, align 8, !tbaa !29
  %6 = icmp ne ptr %5, null
  br i1 %6, label %7, label %11

7:                                                ; preds = %1
  %8 = getelementptr inbounds nuw %"class.zxing::Ref", ptr %3, i32 0, i32 0
  %9 = load ptr, ptr %8, align 8, !tbaa !29
  invoke void @_ZN5zxing7Counted7releaseEv(ptr noundef nonnull align 8 dereferenceable(12) %9)
          to label %10 unwind label %12

10:                                               ; preds = %7
  br label %11

11:                                               ; preds = %10, %1
  ret void

12:                                               ; preds = %7
  %13 = landingpad { ptr, i32 }
          catch ptr null
  %14 = extractvalue { ptr, i32 } %13, 0
  call void @__clang_call_terminate(ptr %14) #11
  unreachable
}

; Function Attrs: mustprogress uwtable
define linkonce_odr hidden void @_ZN5zxing3RefINS_20PerspectiveTransformEEC2EPS1_(ptr noundef nonnull align 8 dereferenceable(8) %0, ptr noundef %1) unnamed_addr #0 comdat align 2 {
  %3 = alloca ptr, align 8
  %4 = alloca ptr, align 8
  store ptr %0, ptr %3, align 8, !tbaa !27
  store ptr %1, ptr %4, align 8, !tbaa !3
  %5 = load ptr, ptr %3, align 8
  %6 = getelementptr inbounds nuw %"class.zxing::Ref", ptr %5, i32 0, i32 0
  store ptr null, ptr %6, align 8, !tbaa !29
  %7 = load ptr, ptr %4, align 8, !tbaa !3
  call void @_ZN5zxing3RefINS_20PerspectiveTransformEE5resetEPS1_(ptr noundef nonnull align 8 dereferenceable(8) %5, ptr noundef %7)
  ret void
}

; Function Attrs: mustprogress uwtable
define hidden void @_ZN5zxing20PerspectiveTransform12buildAdjointEv(ptr dead_on_unwind noalias writable sret(%"class.zxing::Ref") align 8 %0, ptr noundef nonnull align 8 dereferenceable(48) %1) #0 align 2 personality ptr @__gxx_personality_v0 {
  %3 = alloca ptr, align 8
  %4 = alloca ptr, align 8
  %5 = alloca i1, align 1
  %6 = alloca ptr, align 8
  %7 = alloca i32, align 4
  store ptr %0, ptr %3, align 8
  store ptr %1, ptr %4, align 8, !tbaa !3
  %8 = load ptr, ptr %4, align 8
  store i1 false, ptr %5, align 1
  %9 = call noalias noundef nonnull ptr @_Znwm(i64 noundef 48) #9
  %10 = getelementptr inbounds nuw %"class.zxing::PerspectiveTransform", ptr %8, i32 0, i32 5
  %11 = load float, ptr %10, align 4, !tbaa !19
  %12 = getelementptr inbounds nuw %"class.zxing::PerspectiveTransform", ptr %8, i32 0, i32 9
  %13 = load float, ptr %12, align 4, !tbaa !23
  %14 = getelementptr inbounds nuw %"class.zxing::PerspectiveTransform", ptr %8, i32 0, i32 6
  %15 = load float, ptr %14, align 8, !tbaa !20
  %16 = getelementptr inbounds nuw %"class.zxing::PerspectiveTransform", ptr %8, i32 0, i32 8
  %17 = load float, ptr %16, align 8, !tbaa !22
  %18 = fmul float %15, %17
  %19 = fneg float %18
  %20 = call float @llvm.fmuladd.f32(float %11, float %13, float %19)
  %21 = getelementptr inbounds nuw %"class.zxing::PerspectiveTransform", ptr %8, i32 0, i32 6
  %22 = load float, ptr %21, align 8, !tbaa !20
  %23 = getelementptr inbounds nuw %"class.zxing::PerspectiveTransform", ptr %8, i32 0, i32 7
  %24 = load float, ptr %23, align 4, !tbaa !21
  %25 = getelementptr inbounds nuw %"class.zxing::PerspectiveTransform", ptr %8, i32 0, i32 4
  %26 = load float, ptr %25, align 8, !tbaa !18
  %27 = getelementptr inbounds nuw %"class.zxing::PerspectiveTransform", ptr %8, i32 0, i32 9
  %28 = load float, ptr %27, align 4, !tbaa !23
  %29 = fmul float %26, %28
  %30 = fneg float %29
  %31 = call float @llvm.fmuladd.f32(float %22, float %24, float %30)
  %32 = getelementptr inbounds nuw %"class.zxing::PerspectiveTransform", ptr %8, i32 0, i32 4
  %33 = load float, ptr %32, align 8, !tbaa !18
  %34 = getelementptr inbounds nuw %"class.zxing::PerspectiveTransform", ptr %8, i32 0, i32 8
  %35 = load float, ptr %34, align 8, !tbaa !22
  %36 = getelementptr inbounds nuw %"class.zxing::PerspectiveTransform", ptr %8, i32 0, i32 5
  %37 = load float, ptr %36, align 4, !tbaa !19
  %38 = getelementptr inbounds nuw %"class.zxing::PerspectiveTransform", ptr %8, i32 0, i32 7
  %39 = load float, ptr %38, align 4, !tbaa !21
  %40 = fmul float %37, %39
  %41 = fneg float %40
  %42 = call float @llvm.fmuladd.f32(float %33, float %35, float %41)
  %43 = getelementptr inbounds nuw %"class.zxing::PerspectiveTransform", ptr %8, i32 0, i32 3
  %44 = load float, ptr %43, align 4, !tbaa !17
  %45 = getelementptr inbounds nuw %"class.zxing::PerspectiveTransform", ptr %8, i32 0, i32 8
  %46 = load float, ptr %45, align 8, !tbaa !22
  %47 = getelementptr inbounds nuw %"class.zxing::PerspectiveTransform", ptr %8, i32 0, i32 2
  %48 = load float, ptr %47, align 8, !tbaa !16
  %49 = getelementptr inbounds nuw %"class.zxing::PerspectiveTransform", ptr %8, i32 0, i32 9
  %50 = load float, ptr %49, align 4, !tbaa !23
  %51 = fmul float %48, %50
  %52 = fneg float %51
  %53 = call float @llvm.fmuladd.f32(float %44, float %46, float %52)
  %54 = getelementptr inbounds nuw %"class.zxing::PerspectiveTransform", ptr %8, i32 0, i32 1
  %55 = load float, ptr %54, align 4, !tbaa !12
  %56 = getelementptr inbounds nuw %"class.zxing::PerspectiveTransform", ptr %8, i32 0, i32 9
  %57 = load float, ptr %56, align 4, !tbaa !23
  %58 = getelementptr inbounds nuw %"class.zxing::PerspectiveTransform", ptr %8, i32 0, i32 3
  %59 = load float, ptr %58, align 4, !tbaa !17
  %60 = getelementptr inbounds nuw %"class.zxing::PerspectiveTransform", ptr %8, i32 0, i32 7
  %61 = load float, ptr %60, align 4, !tbaa !21
  %62 = fmul float %59, %61
  %63 = fneg float %62
  %64 = call float @llvm.fmuladd.f32(float %55, float %57, float %63)
  %65 = getelementptr inbounds nuw %"class.zxing::PerspectiveTransform", ptr %8, i32 0, i32 2
  %66 = load float, ptr %65, align 8, !tbaa !16
  %67 = getelementptr inbounds nuw %"class.zxing::PerspectiveTransform", ptr %8, i32 0, i32 7
  %68 = load float, ptr %67, align 4, !tbaa !21
  %69 = getelementptr inbounds nuw %"class.zxing::PerspectiveTransform", ptr %8, i32 0, i32 1
  %70 = load float, ptr %69, align 4, !tbaa !12
  %71 = getelementptr inbounds nuw %"class.zxing::PerspectiveTransform", ptr %8, i32 0, i32 8
  %72 = load float, ptr %71, align 8, !tbaa !22
  %73 = fmul float %70, %72
  %74 = fneg float %73
  %75 = call float @llvm.fmuladd.f32(float %66, float %68, float %74)
  %76 = getelementptr inbounds nuw %"class.zxing::PerspectiveTransform", ptr %8, i32 0, i32 2
  %77 = load float, ptr %76, align 8, !tbaa !16
  %78 = getelementptr inbounds nuw %"class.zxing::PerspectiveTransform", ptr %8, i32 0, i32 6
  %79 = load float, ptr %78, align 8, !tbaa !20
  %80 = getelementptr inbounds nuw %"class.zxing::PerspectiveTransform", ptr %8, i32 0, i32 3
  %81 = load float, ptr %80, align 4, !tbaa !17
  %82 = getelementptr inbounds nuw %"class.zxing::PerspectiveTransform", ptr %8, i32 0, i32 5
  %83 = load float, ptr %82, align 4, !tbaa !19
  %84 = fmul float %81, %83
  %85 = fneg float %84
  %86 = call float @llvm.fmuladd.f32(float %77, float %79, float %85)
  %87 = getelementptr inbounds nuw %"class.zxing::PerspectiveTransform", ptr %8, i32 0, i32 3
  %88 = load float, ptr %87, align 4, !tbaa !17
  %89 = getelementptr inbounds nuw %"class.zxing::PerspectiveTransform", ptr %8, i32 0, i32 4
  %90 = load float, ptr %89, align 8, !tbaa !18
  %91 = getelementptr inbounds nuw %"class.zxing::PerspectiveTransform", ptr %8, i32 0, i32 1
  %92 = load float, ptr %91, align 4, !tbaa !12
  %93 = getelementptr inbounds nuw %"class.zxing::PerspectiveTransform", ptr %8, i32 0, i32 6
  %94 = load float, ptr %93, align 8, !tbaa !20
  %95 = fmul float %92, %94
  %96 = fneg float %95
  %97 = call float @llvm.fmuladd.f32(float %88, float %90, float %96)
  %98 = getelementptr inbounds nuw %"class.zxing::PerspectiveTransform", ptr %8, i32 0, i32 1
  %99 = load float, ptr %98, align 4, !tbaa !12
  %100 = getelementptr inbounds nuw %"class.zxing::PerspectiveTransform", ptr %8, i32 0, i32 5
  %101 = load float, ptr %100, align 4, !tbaa !19
  %102 = getelementptr inbounds nuw %"class.zxing::PerspectiveTransform", ptr %8, i32 0, i32 2
  %103 = load float, ptr %102, align 8, !tbaa !16
  %104 = getelementptr inbounds nuw %"class.zxing::PerspectiveTransform", ptr %8, i32 0, i32 4
  %105 = load float, ptr %104, align 8, !tbaa !18
  %106 = fmul float %103, %105
  %107 = fneg float %106
  %108 = call float @llvm.fmuladd.f32(float %99, float %101, float %107)
  invoke void @_ZN5zxing20PerspectiveTransformC1Efffffffff(ptr noundef nonnull align 8 dereferenceable(48) %9, float noundef %20, float noundef %31, float noundef %42, float noundef %53, float noundef %64, float noundef %75, float noundef %86, float noundef %97, float noundef %108)
          to label %109 unwind label %111

109:                                              ; preds = %2
  call void @_ZN5zxing3RefINS_20PerspectiveTransformEEC2EPS1_(ptr noundef nonnull align 8 dereferenceable(8) %0, ptr noundef %9)
  store i1 true, ptr %5, align 1
  %110 = load i1, ptr %5, align 1
  br i1 %110, label %116, label %115

111:                                              ; preds = %2
  %112 = landingpad { ptr, i32 }
          cleanup
  %113 = extractvalue { ptr, i32 } %112, 0
  store ptr %113, ptr %6, align 8
  %114 = extractvalue { ptr, i32 } %112, 1
  store i32 %114, ptr %7, align 4
  call void @_ZdlPv(ptr noundef %9) #10
  br label %117

115:                                              ; preds = %109
  call void @_ZN5zxing3RefINS_20PerspectiveTransformEED2Ev(ptr noundef nonnull align 8 dereferenceable(8) %0) #8
  br label %116

116:                                              ; preds = %115, %109
  ret void

117:                                              ; preds = %111
  %118 = load ptr, ptr %6, align 8
  %119 = load i32, ptr %7, align 4
  %120 = insertvalue { ptr, i32 } poison, ptr %118, 0
  %121 = insertvalue { ptr, i32 } %120, i32 %119, 1
  resume { ptr, i32 } %121
}