; Function Attrs: mustprogress uwtable
define hidden void @_ZN5zxing20PerspectiveTransform12buildAdjointEv(ptr dead_on_unwind noalias writable writeonly sret(%"class.zxing::Ref") align 8 captures(none) initializes((0, 8)) %0, ptr noundef nonnull readonly align 8 captures(none) dereferenceable(48) %1) local_unnamed_addr #1 align 2 personality ptr @__gxx_personality_v0 {
  %3 = tail call noalias noundef nonnull dereferenceable(48) ptr @_Znwm(i64 noundef 48) #12
  %4 = getelementptr inbounds nuw i8, ptr %1, i64 28
  %5 = load float, ptr %4, align 4, !tbaa !16
  %6 = getelementptr inbounds nuw i8, ptr %1, i64 44
  %7 = load float, ptr %6, align 4, !tbaa !20
  %8 = getelementptr inbounds nuw i8, ptr %1, i64 32
  %9 = load float, ptr %8, align 8, !tbaa !17
  %10 = getelementptr inbounds nuw i8, ptr %1, i64 40
  %11 = load float, ptr %10, align 8, !tbaa !19
  %12 = fneg float %11
  %13 = fmul float %9, %12
  %14 = tail call float @llvm.fmuladd.f32(float %5, float %7, float %13)
  %15 = getelementptr inbounds nuw i8, ptr %1, i64 36
  %16 = load float, ptr %15, align 4, !tbaa !18
  %17 = getelementptr inbounds nuw i8, ptr %1, i64 24
  %18 = load float, ptr %17, align 8, !tbaa !15
  %19 = fneg float %7
  %20 = fmul float %18, %19
  %21 = tail call float @llvm.fmuladd.f32(float %9, float %16, float %20)
  %22 = fneg float %16
  %23 = fmul float %5, %22
  %24 = tail call float @llvm.fmuladd.f32(float %18, float %11, float %23)
  %25 = getelementptr inbounds nuw i8, ptr %1, i64 20
  %26 = load float, ptr %25, align 4, !tbaa !14
  %27 = getelementptr inbounds nuw i8, ptr %1, i64 16
  %28 = load float, ptr %27, align 8, !tbaa !13
  %29 = fmul float %28, %19
  %30 = tail call float @llvm.fmuladd.f32(float %26, float %11, float %29)
  %31 = getelementptr inbounds nuw i8, ptr %1, i64 12
  %32 = load float, ptr %31, align 4, !tbaa !10
  %33 = fmul float %26, %22
  %34 = tail call float @llvm.fmuladd.f32(float %32, float %7, float %33)
  %35 = fmul float %32, %12
  %36 = tail call float @llvm.fmuladd.f32(float %28, float %16, float %35)
  %37 = fneg float %5
  %38 = fmul float %26, %37
  %39 = tail call float @llvm.fmuladd.f32(float %28, float %9, float %38)
  %40 = fneg float %9
  %41 = fmul float %32, %40
  %42 = tail call float @llvm.fmuladd.f32(float %26, float %18, float %41)
  %43 = fneg float %18
  %44 = fmul float %28, %43
  %45 = tail call float @llvm.fmuladd.f32(float %32, float %5, float %44)
  %46 = getelementptr inbounds nuw i8, ptr %3, i64 8
  store ptr getelementptr inbounds nuw inrange(-16, 16) (i8, ptr @_ZTVN5zxing20PerspectiveTransformE, i64 16), ptr %3, align 8, !tbaa !8
  %47 = getelementptr inbounds nuw i8, ptr %3, i64 12
  store float %14, ptr %47, align 4, !tbaa !10
  %48 = getelementptr inbounds nuw i8, ptr %3, i64 16
  store float %30, ptr %48, align 8, !tbaa !13
  %49 = getelementptr inbounds nuw i8, ptr %3, i64 20
  store float %39, ptr %49, align 4, !tbaa !14
  %50 = getelementptr inbounds nuw i8, ptr %3, i64 24
  store float %21, ptr %50, align 8, !tbaa !15
  %51 = getelementptr inbounds nuw i8, ptr %3, i64 28
  store float %34, ptr %51, align 4, !tbaa !16
  %52 = getelementptr inbounds nuw i8, ptr %3, i64 32
  store float %42, ptr %52, align 8, !tbaa !17
  %53 = getelementptr inbounds nuw i8, ptr %3, i64 36
  store float %24, ptr %53, align 4, !tbaa !18
  %54 = getelementptr inbounds nuw i8, ptr %3, i64 40
  store float %36, ptr %54, align 8, !tbaa !19
  %55 = getelementptr inbounds nuw i8, ptr %3, i64 44
  store float %45, ptr %55, align 4, !tbaa !20
  store i32 1, ptr %46, align 8, !tbaa !3
  store ptr %3, ptr %0, align 8, !tbaa !21
  ret void
}